Certificate:
    Data:
        Version: 3 (0x2)
        Serial Number: 94 (0x5e)
        Signature Algorithm: sha512WithRSAEncryption
        Issuer: C=IT, O=IGI, CN=Test CA
        Validity
            Not Before: Jul  4 16:15:57 2014 GMT
            Not After : Jul  1 16:15:57 2024 GMT
        Subject: C=IT, O=IGI, CN=centos6-devel.cnaf.infn.it
        Subject Public Key Info:
            Public Key Algorithm: rsaEncryption
            RSA Public Key: (2048 bit)
                Modulus (2048 bit):
                    00:b7:47:b1:45:db:d9:7f:22:31:25:db:c2:63:0e:
                    de:15:c6:ac:c7:c4:c4:65:6b:67:30:03:fa:4c:e2:
                    43:98:a5:85:2e:8d:53:c8:fc:18:31:96:eb:5f:4a:
                    dd:af:73:e8:63:d6:cc:fe:0d:8d:8a:fb:70:02:40:
                    4d:91:0a:7c:14:b4:de:83:d6:75:51:d1:ad:da:b4:
                    a9:ea:14:e6:b5:4f:81:50:d9:42:b5:c7:d9:f2:e0:
                    0c:ae:8a:2c:b3:d8:df:83:8c:8f:ca:51:0b:0e:e9:
                    79:71:74:a0:0f:5f:98:c4:4c:66:ea:1f:9d:4b:1e:
                    0c:9a:b8:ba:ff:07:c6:2b:db:8a:20:4f:c9:0b:88:
                    d5:e7:a1:71:fb:66:a7:f7:d4:bb:cb:58:23:50:3c:
                    0f:88:f0:c8:73:d7:01:05:35:50:68:1b:f9:ff:82:
                    d6:88:4f:8e:96:a9:95:d3:22:13:7b:88:da:88:b9:
                    7d:9e:c6:2e:3b:a5:c3:e0:c1:9a:8b:ad:38:f7:49:
                    66:c3:08:dc:ac:ef:82:70:af:25:72:77:80:d6:6c:
                    48:6f:e3:f1:ac:ed:fe:16:a2:a0:12:7b:fb:98:c8:
                    bf:51:70:e1:1c:d1:07:05:f8:66:2b:03:b4:25:2a:
                    a5:2b:42:4b:0d:0d:57:57:3b:25:7f:fd:9d:72:75:
                    6a:4f
                Exponent: 65537 (0x10001)
        X509v3 extensions:
            X509v3 Basic Constraints: critical
                CA:FALSE
            X509v3 Subject Key Identifier: 
                AF:FE:38:19:51:1C:91:D4:5C:7F:75:0B:7C:B3:28:51:99:0C:38:2D
            X509v3 Key Usage: critical
                Digital Signature, Non Repudiation, Key Encipherment
            X509v3 Extended Key Usage: 
                TLS Web Server Authentication, TLS Web Client Authentication, Microsoft Server Gated Crypto, Netscape Server Gated Crypto, E-mail Protection
            X509v3 Authority Key Identifier: 
                keyid:91:77:36:7B:2E:B4:69:F3:27:EA:B7:F6:08:8B:4A:23:A2:11:49:C6

            X509v3 Subject Alternative Name: 
                DNS:centos6-devel.cnaf.infn.it
    Signature Algorithm: sha512WithRSAEncryption
        93:2c:04:ac:72:55:20:d1:95:47:43:ab:7c:da:8c:72:2f:2b:
        30:93:37:56:aa:d7:b5:dc:f5:54:52:77:a6:f2:26:e6:f6:29:
        62:07:09:f4:f1:19:c8:c0:5a:55:af:08:e9:56:05:0a:0e:13:
        d9:9b:f1:f7:71:2c:44:9a:91:47:f7:37:8c:65:a2:3a:d9:02:
        54:a1:65:d6:29:04:94:4d:59:04:d8:01:e2:a0:5d:93:15:e8:
        16:08:f6:60:50:f1:9a:b7:53:98:b3:5a:c1:a5:95:22:41:c0:
        a0:0d:23:e1:a6:bf:c1:f0:7c:6e:6e:56:7a:ca:dd:b0:a4:a9:
        50:da:a1:c3:73:4d:61:22:3c:46:34:26:b8:6a:31:a8:88:c9:
        48:8f:bb:bd:02:62:d9:1b:35:85:0e:cd:b4:c3:52:3b:8a:9d:
        18:09:e6:49:ef:8d:72:bd:be:0d:c8:ba:66:02:b9:a1:8b:4a:
        2e:a1:0a:0d:ff:b5:2a:52:ca:6f:6e:33:27:90:d7:9a:c8:78:
        0c:4d:c7:b7:c2:69:70:8a:16:cc:95:3e:7e:b9:eb:87:5a:3a:
        a8:20:4b:0f:8b:03:85:05:80:23:72:70:6e:31:a3:3b:b1:ef:
        2b:13:8e:6f:83:54:9a:4d:02:68:c4:1b:c4:aa:9d:ec:50:70:
        06:0a:0c:06
-----BEGIN CERTIFICATE-----
MIIDsTCCApmgAwIBAgIBXjANBgkqhkiG9w0BAQ0FADAtMQswCQYDVQQGEwJJVDEM
MAoGA1UECgwDSUdJMRAwDgYDVQQDDAdUZXN0IENBMB4XDTE0MDcwNDE2MTU1N1oX
DTI0MDcwMTE2MTU1N1owQDELMAkGA1UEBhMCSVQxDDAKBgNVBAoTA0lHSTEjMCEG
A1UEAxMaY2VudG9zNi1kZXZlbC5jbmFmLmluZm4uaXQwggEiMA0GCSqGSIb3DQEB
AQUAA4IBDwAwggEKAoIBAQC3R7FF29l/IjEl28JjDt4VxqzHxMRla2cwA/pM4kOY
pYUujVPI/BgxlutfSt2vc+hj1sz+DY2K+3ACQE2RCnwUtN6D1nVR0a3atKnqFOa1
T4FQ2UK1x9ny4Ayuiiyz2N+DjI/KUQsO6XlxdKAPX5jETGbqH51LHgyauLr/B8Yr
24ogT8kLiNXnoXH7Zqf31LvLWCNQPA+I8Mhz1wEFNVBoG/n/gtaIT46WqZXTIhN7
iNqIuX2exi47pcPgwZqLrTj3SWbDCNys74JwryVyd4DWbEhv4/Gs7f4WoqASe/uY
yL9RcOEc0QcF+GYrA7QlKqUrQksNDVdXOyV//Z1ydWpPAgMBAAGjgcgwgcUwDAYD
VR0TAQH/BAIwADAdBgNVHQ4EFgQUr/44GVEckdRcf3ULfLMoUZkMOC0wDgYDVR0P
AQH/BAQDAgXgMD4GA1UdJQQ3MDUGCCsGAQUFBwMBBggrBgEFBQcDAgYKKwYBBAGC
NwoDAwYJYIZIAYb4QgQBBggrBgEFBQcDBDAfBgNVHSMEGDAWgBSRdzZ7LrRp8yfq
t/YIi0ojohFJxjAlBgNVHREEHjAcghpjZW50b3M2LWRldmVsLmNuYWYuaW5mbi5p
dDANBgkqhkiG9w0BAQ0FAAOCAQEAkywErHJVINGVR0OrfNqMci8rMJM3VqrXtdz1
VFJ3pvIm5vYpYgcJ9PEZyMBaVa8I6VYFCg4T2Zvx93EsRJqRR/c3jGWiOtkCVKFl
1ikElE1ZBNgB4qBdkxXoFgj2YFDxmrdTmLNawaWVIkHAoA0j4aa/wfB8bm5Wesrd
sKSpUNqhw3NNYSI8RjQmuGoxqIjJSI+7vQJi2Rs1hQ7NtMNSO4qdGAnmSe+Ncr2+
Dci6ZgK5oYtKLqEKDf+1KlLKb24zJ5DXmsh4DE3Ht8JpcIoWzJU+frnrh1o6qCBL
D4sDhQWAI3JwbjGjO7HvKxOOb4NUmk0CaMQbxKqd7FBwBgoMBg==
-----END CERTIFICATE-----
